; Function Attrs: mustprogress nofree nounwind willreturn memory(read) uwtable
define internal fastcc noundef zeroext i1 @_ZL10canUseSExtPN4llvm11ConstantIntE(ptr noundef %0) unnamed_addr #12 {
  %2 = getelementptr inbounds nuw i8, ptr %0, i64 24
  %3 = getelementptr inbounds i8, ptr %0, i64 32
  %4 = load i32, ptr %3, align 8
  %5 = icmp ult i32 %4, 65
  br i1 %5, label %_ZNK4llvm5APInt12getSExtValueEv.exit.i, label %6

6:                                                ; preds = %1
  %7 = add i32 %4, -1
  %8 = and i32 %7, 63
  %9 = zext nneg i32 %8 to i64
  %10 = shl nuw i64 1, %9
  %11 = load ptr, ptr %2, align 8
  %12 = lshr i32 %7, 6
  %13 = zext nneg i32 %12 to i64
  %14 = getelementptr inbounds i64, ptr %11, i64 %13
  %15 = load i64, ptr %14, align 8
  %16 = and i64 %15, %10
  %.not.i.i.i = icmp eq i64 %16, 0
  %17 = add i32 %4, 1
  br i1 %.not.i.i.i, label %_ZNK4llvm5APInt18getSignificantBitsEv.exit.i, label %_ZNK4llvm5APInt18getSignificantBitsEv.exit.i.thread

_ZNK4llvm5APInt18getSignificantBitsEv.exit.i:     ; preds = %6
  %18 = tail call noundef i32 @_ZNK4llvm5APInt25countLeadingZerosSlowCaseEv(ptr noundef nonnull align 8 dereferenceable(12) %2) #23
  %19 = sub i32 %17, %18
  %20 = icmp ugt i32 %19, 64
  br i1 %20, label %.thread9.thread, label %_ZNK4llvm5APInt12getSExtValueEv.exit.i.thread

_ZNK4llvm5APInt18getSignificantBitsEv.exit.i.thread: ; preds = %6
  %21 = tail call noundef i32 @_ZNK4llvm5APInt24countLeadingOnesSlowCaseEv(ptr noundef nonnull align 8 dereferenceable(12) %2) #23
  %22 = sub i32 %17, %21
  %23 = icmp ugt i32 %22, 64
  br i1 %23, label %_ZNK4llvm5APInt3sltEl.exit, label %_ZNK4llvm5APInt12getSExtValueEv.exit.i.thread.thread

_ZNK4llvm5APInt12getSExtValueEv.exit.i:           ; preds = %1
  %24 = load i64, ptr %2, align 8
  %25 = icmp ne i32 %4, 0
  %26 = sub nuw nsw i32 64, %4
  %27 = zext nneg i32 %26 to i64
  %28 = shl i64 %24, %27
  %29 = ashr exact i64 %28, %27
  %.not1011 = icmp eq i64 %29, -9223372036854775808
  %.not10 = select i1 %25, i1 %.not1011, i1 false
  br i1 %.not10, label %_ZNK4llvm5APInt3sltEl.exit, label %39

_ZNK4llvm5APInt12getSExtValueEv.exit.i.thread:    ; preds = %_ZNK4llvm5APInt18getSignificantBitsEv.exit.i
  %30 = load i64, ptr %11, align 8
  %.not = icmp eq i64 %30, -9223372036854775808
  br i1 %.not, label %_ZNK4llvm5APInt3sltEl.exit, label %.thread9.thread

_ZNK4llvm5APInt12getSExtValueEv.exit.i.thread.thread: ; preds = %_ZNK4llvm5APInt18getSignificantBitsEv.exit.i.thread
  %31 = load i64, ptr %11, align 8
  %.not13 = icmp eq i64 %31, -9223372036854775808
  br i1 %.not13, label %_ZNK4llvm5APInt3sltEl.exit, label %.thread9.thread14

.thread9.thread14:                                ; preds = %_ZNK4llvm5APInt12getSExtValueEv.exit.i.thread.thread
  %32 = tail call noundef i32 @_ZNK4llvm5APInt24countLeadingOnesSlowCaseEv(ptr noundef nonnull align 8 dereferenceable(12) %2) #23
  br label %_ZNK4llvm5APInt18getSignificantBitsEv.exit.i4

.thread9.thread:                                  ; preds = %_ZNK4llvm5APInt12getSExtValueEv.exit.i.thread, %_ZNK4llvm5APInt18getSignificantBitsEv.exit.i
  %33 = tail call noundef i32 @_ZNK4llvm5APInt25countLeadingZerosSlowCaseEv(ptr noundef nonnull align 8 dereferenceable(12) %2) #23
  br label %_ZNK4llvm5APInt18getSignificantBitsEv.exit.i4

_ZNK4llvm5APInt18getSignificantBitsEv.exit.i4:    ; preds = %.thread9.thread, %.thread9.thread14
  %34 = phi i32 [ %32, %.thread9.thread14 ], [ %33, %.thread9.thread ]
  %35 = sub i32 %17, %34
  %36 = icmp ugt i32 %35, 64
  br i1 %36, label %37, label %41

37:                                               ; preds = %_ZNK4llvm5APInt18getSignificantBitsEv.exit.i4
  %38 = icmp ne i64 %16, 0
  br label %_ZNK4llvm5APInt3sltEl.exit

39:                                               ; preds = %_ZNK4llvm5APInt12getSExtValueEv.exit.i
  %40 = icmp eq i32 %4, 0
  %.0.i.i.i7 = select i1 %40, i64 0, i64 %29
  br label %_ZNK4llvm5APInt12getSExtValueEv.exit.i5

41:                                               ; preds = %_ZNK4llvm5APInt18getSignificantBitsEv.exit.i4
  %42 = load i64, ptr %11, align 8
  br label %_ZNK4llvm5APInt12getSExtValueEv.exit.i5

_ZNK4llvm5APInt12getSExtValueEv.exit.i5:          ; preds = %41, %39
  %.0.i.i6 = phi i64 [ %.0.i.i.i7, %39 ], [ %42, %41 ]
  %43 = icmp ne i64 %.0.i.i6, 9223372036854775807
  br label %_ZNK4llvm5APInt3sltEl.exit

_ZNK4llvm5APInt3sltEl.exit:                       ; preds = %_ZNK4llvm5APInt18getSignificantBitsEv.exit.i.thread, %_ZNK4llvm5APInt12getSExtValueEv.exit.i.thread.thread, %_ZNK4llvm5APInt12getSExtValueEv.exit.i5, %37, %_ZNK4llvm5APInt12getSExtValueEv.exit.i.thread, %_ZNK4llvm5APInt12getSExtValueEv.exit.i
  %44 = phi i1 [ false, %_ZNK4llvm5APInt12getSExtValueEv.exit.i ], [ false, %_ZNK4llvm5APInt12getSExtValueEv.exit.i.thread ], [ %38, %37 ], [ %43, %_ZNK4llvm5APInt12getSExtValueEv.exit.i5 ], [ false, %_ZNK4llvm5APInt12getSExtValueEv.exit.i.thread.thread ], [ false, %_ZNK4llvm5APInt18getSignificantBitsEv.exit.i.thread ]
  ret i1 %44
}